target datalayout = "e-m:e-p270:32:32-p271:32:32-p272:64:64-i64:64-i128:128-f80:128-n8:16:32:64-S128"
target triple = "x86_64-pc-linux-gnu"

%struct.ident_t = type { i32, i32, i32, i32, ptr }
%"class.std::vector.11" = type { %"struct.std::_Vector_base.12" }
%"struct.std::_Vector_base.12" = type { %"struct.std::_Vector_base<float, std::allocator<float>>::_Vector_impl" }
%"struct.std::_Vector_base<float, std::allocator<float>>::_Vector_impl" = type { %"struct.std::_Vector_base<float, std::allocator<float>>::_Vector_impl_data" }
%"struct.std::_Vector_base<float, std::allocator<float>>::_Vector_impl_data" = type { ptr, ptr, ptr }
%"struct.faiss::AdditiveQuantizer" = type <{ %"struct.faiss::Quantizer", i64, %"class.std::vector", %"class.std::vector.11", %"class.std::vector", i64, i64, i64, i8, i8, i8, [5 x i8], %"struct.faiss::IndexFlat1D", %"class.std::vector.11", i64, i32, float, float, [4 x i8] }>
%"struct.faiss::Quantizer" = type { ptr, i64, i64 }
%"class.std::vector" = type { %"struct.std::_Vector_base" }
%"struct.std::_Vector_base" = type { %"struct.std::_Vector_base<unsigned long, std::allocator<unsigned long>>::_Vector_impl" }
%"struct.std::_Vector_base<unsigned long, std::allocator<unsigned long>>::_Vector_impl" = type { %"struct.std::_Vector_base<unsigned long, std::allocator<unsigned long>>::_Vector_impl_data" }
%"struct.std::_Vector_base<unsigned long, std::allocator<unsigned long>>::_Vector_impl_data" = type { ptr, ptr, ptr }
%"struct.faiss::IndexFlat1D" = type { %"struct.faiss::IndexFlatL2", i8, %"class.std::vector.21" }
%"struct.faiss::IndexFlatL2" = type { %"struct.faiss::IndexFlat", %"class.std::vector.11" }
%"struct.faiss::IndexFlat" = type { %"struct.faiss::IndexFlatCodes" }
%"struct.faiss::IndexFlatCodes" = type { %"struct.faiss::Index.base", i64, %"class.std::vector.16" }
%"struct.faiss::Index.base" = type <{ ptr, i32, [4 x i8], i64, i8, i8, [2 x i8], i32, float }>
%"class.std::vector.16" = type { %"struct.std::_Vector_base.17" }
%"struct.std::_Vector_base.17" = type { %"struct.std::_Vector_base<unsigned char, std::allocator<unsigned char>>::_Vector_impl" }
%"struct.std::_Vector_base<unsigned char, std::allocator<unsigned char>>::_Vector_impl" = type { %"struct.std::_Vector_base<unsigned char, std::allocator<unsigned char>>::_Vector_impl_data" }
%"struct.std::_Vector_base<unsigned char, std::allocator<unsigned char>>::_Vector_impl_data" = type { ptr, ptr, ptr }
%"class.std::vector.21" = type { %"struct.std::_Vector_base.22" }
%"struct.std::_Vector_base.22" = type { %"struct.std::_Vector_base<long, std::allocator<long>>::_Vector_impl" }
%"struct.std::_Vector_base<long, std::allocator<long>>::_Vector_impl" = type { %"struct.std::_Vector_base<long, std::allocator<long>>::_Vector_impl_data" }
%"struct.std::_Vector_base<long, std::allocator<long>>::_Vector_impl_data" = type { ptr, ptr, ptr }
%"struct.faiss::LocalSearchQuantizer" = type <{ %"struct.faiss::AdditiveQuantizer.base", [4 x i8], i64, i64, i64, i64, i64, float, float, i64, i32, [4 x i8], i64, ptr, i8, [7 x i8] }>
%"struct.faiss::AdditiveQuantizer.base" = type <{ %"struct.faiss::Quantizer", i64, %"class.std::vector", %"class.std::vector.11", %"class.std::vector", i64, i64, i64, i8, i8, i8, [5 x i8], %"struct.faiss::IndexFlat1D", %"class.std::vector.11", i64, i32, float, float }>

@1 = private unnamed_addr constant %struct.ident_t { i32 0, i32 514, i32 0, i32 22, ptr @0 }, align 8

; Function Attrs: mustprogress nounwind uwtable
define linkonce_odr noundef ptr @_ZNKSt6vectorIfSaIfEE11_M_data_ptrIfEEPT_S4_(ptr noundef nonnull align 8 dereferenceable(24) %0, ptr noundef %1) #0 comdat align 2 {
  %3 = alloca ptr, align 8
  %4 = alloca ptr, align 8
  store ptr %0, ptr %3, align 8
  store ptr %1, ptr %4, align 8
  %5 = load ptr, ptr %4, align 8
  ret ptr %5
}

; Function Attrs: mustprogress nounwind uwtable
define linkonce_odr noundef ptr @_ZNSt6vectorIfSaIfEE4dataEv(ptr noundef nonnull align 8 dereferenceable(24) %0) #0 comdat align 2 {
  %2 = alloca ptr, align 8
  store ptr %0, ptr %2, align 8
  %3 = load ptr, ptr %2, align 8
  %4 = getelementptr inbounds %"struct.std::_Vector_base.12", ptr %3, i32 0, i32 0
  %5 = getelementptr inbounds %"struct.std::_Vector_base<float, std::allocator<float>>::_Vector_impl_data", ptr %4, i32 0, i32 0
  %6 = load ptr, ptr %5, align 8
  %7 = call noundef ptr @_ZNKSt6vectorIfSaIfEE11_M_data_ptrIfEEPT_S4_(ptr noundef nonnull align 8 dereferenceable(24) %3, ptr noundef %6) #4
  ret ptr %7
}

; Function Attrs: norecurse nounwind uwtable
define internal void @_ZNK5faiss20LocalSearchQuantizer19compute_unary_termsEPKfPfm.omp_outlined(ptr noalias noundef %0, ptr noalias noundef %1, ptr noundef nonnull align 8 dereferenceable(8) %2, ptr noundef %3, ptr noundef nonnull align 8 dereferenceable(8) %4, ptr noundef nonnull align 8 dereferenceable(24) %5) #11 personality ptr @__gxx_personality_v0 {
  %7 = alloca ptr, align 8
  %8 = alloca ptr, align 8
  %9 = alloca ptr, align 8
  %10 = alloca ptr, align 8
  %11 = alloca ptr, align 8
  %12 = alloca ptr, align 8
  %13 = alloca i64, align 8
  %14 = alloca i64, align 8
  %15 = alloca i64, align 8
  %16 = alloca i64, align 8
  %17 = alloca i64, align 8
  %18 = alloca i64, align 8
  %19 = alloca i64, align 8
  %20 = alloca i32, align 4
  %21 = alloca i64, align 8
  %22 = alloca i64, align 8
  %23 = alloca ptr, align 8
  store ptr %0, ptr %7, align 8
  store ptr %1, ptr %8, align 8
  store ptr %2, ptr %9, align 8
  store ptr %3, ptr %10, align 8
  store ptr %4, ptr %11, align 8
  store ptr %5, ptr %12, align 8
  %24 = load ptr, ptr %9, align 8
  %25 = load ptr, ptr %10, align 8
  %26 = load ptr, ptr %11, align 8
  %27 = load ptr, ptr %12, align 8
  %28 = load i64, ptr %24, align 8
  store i64 %28, ptr %14, align 8
  %29 = load i64, ptr %14, align 8
  %30 = sub i64 %29, 0
  %31 = udiv i64 %30, 1
  %32 = sub i64 %31, 1
  store i64 %32, ptr %15, align 8
  store i64 0, ptr %16, align 8
  %33 = load i64, ptr %14, align 8
  %34 = icmp ult i64 0, %33
  br i1 %34, label %35, label %100

35:                                               ; preds = %6
  store i64 0, ptr %17, align 8
  %36 = load i64, ptr %15, align 8
  store i64 %36, ptr %18, align 8
  store i64 1, ptr %19, align 8
  store i32 0, ptr %20, align 4
  %37 = load ptr, ptr %7, align 8
  %38 = load i32, ptr %37, align 4
  call void @__kmpc_for_static_init_8u(ptr @1, i32 %38, i32 34, ptr %20, ptr %17, ptr %18, ptr %19, i64 1, i64 1)
  %39 = load i64, ptr %18, align 8
  %40 = load i64, ptr %15, align 8
  %41 = icmp ugt i64 %39, %40
  br i1 %41, label %42, label %44

42:                                               ; preds = %35
  %43 = load i64, ptr %15, align 8
  br label %46

44:                                               ; preds = %35
  %45 = load i64, ptr %18, align 8
  br label %46

46:                                               ; preds = %44, %42
  %47 = phi i64 [ %43, %42 ], [ %45, %44 ]
  store i64 %47, ptr %18, align 8
  %48 = load i64, ptr %17, align 8
  store i64 %48, ptr %13, align 8
  br label %49

49:                                               ; preds = %93, %46
  %50 = load i64, ptr %13, align 8
  %51 = load i64, ptr %18, align 8
  %52 = add i64 %51, 1
  %53 = icmp ult i64 %50, %52
  br i1 %53, label %54, label %96

54:                                               ; preds = %49
  %55 = load i64, ptr %13, align 8
  %56 = mul i64 %55, 1
  %57 = add i64 0, %56
  store i64 %57, ptr %21, align 8
  store i64 0, ptr %22, align 8
  br label %58

58:                                               ; preds = %88, %54
  %59 = load i64, ptr %22, align 8
  %60 = getelementptr inbounds %"struct.faiss::AdditiveQuantizer", ptr %25, i32 0, i32 1
  %61 = load i64, ptr %60, align 8
  %62 = icmp ult i64 %59, %61
  br i1 %62, label %63, label %91

63:                                               ; preds = %58
  %64 = load ptr, ptr %26, align 8
  %65 = load i64, ptr %22, align 8
  %66 = load i64, ptr %24, align 8
  %67 = mul i64 %65, %66
  %68 = getelementptr inbounds %"struct.faiss::LocalSearchQuantizer", ptr %25, i32 0, i32 2
  %69 = load i64, ptr %68, align 8
  %70 = mul i64 %67, %69
  %71 = getelementptr inbounds float, ptr %64, i64 %70
  %72 = load i64, ptr %21, align 8
  %73 = getelementptr inbounds %"struct.faiss::LocalSearchQuantizer", ptr %25, i32 0, i32 2
  %74 = load i64, ptr %73, align 8
  %75 = mul i64 %72, %74
  %76 = getelementptr inbounds float, ptr %71, i64 %75
  store ptr %76, ptr %23, align 8
  %77 = getelementptr inbounds %"struct.faiss::LocalSearchQuantizer", ptr %25, i32 0, i32 2
  %78 = load i64, ptr %77, align 8
  %79 = load ptr, ptr %23, align 8
  %80 = call noundef ptr @_ZNSt6vectorIfSaIfEE4dataEv(ptr noundef nonnull align 8 dereferenceable(24) %27) #4
  %81 = load i64, ptr %22, align 8
  %82 = getelementptr inbounds %"struct.faiss::LocalSearchQuantizer", ptr %25, i32 0, i32 2
  %83 = load i64, ptr %82, align 8
  %84 = mul i64 %81, %83
  %85 = getelementptr inbounds float, ptr %80, i64 %84
  %86 = load ptr, ptr %23, align 8
  invoke void @_ZN5faiss8fvec_addEmPKfS1_Pf(i64 noundef %78, ptr noundef %79, ptr noundef %85, ptr noundef %86)
          to label %87 unwind label %101

87:                                               ; preds = %63
  br label %88

88:                                               ; preds = %87
  %89 = load i64, ptr %22, align 8
  %90 = add i64 %89, 1
  store i64 %90, ptr %22, align 8
  br label %58, !llvm.loop !70

91:                                               ; preds = %58
  br label %92

92:                                               ; preds = %91
  br label %93

93:                                               ; preds = %92
  %94 = load i64, ptr %13, align 8
  %95 = add i64 %94, 1
  store i64 %95, ptr %13, align 8
  br label %49

96:                                               ; preds = %49
  br label %97

97:                                               ; preds = %96
  %98 = load ptr, ptr %7, align 8
  %99 = load i32, ptr %98, align 4
  call void @__kmpc_for_static_fini(ptr @1, i32 %99)
  br label %100

100:                                              ; preds = %97, %6
  ret void

101:                                              ; preds = %63
  %102 = landingpad { ptr, i32 }
          catch ptr null
  %103 = extractvalue { ptr, i32 } %102, 0
  call void @__clang_call_terminate(ptr %103) #20
  unreachable
}