; Function Attrs: norecurse nounwind uwtable
define internal void @_ZNK5faiss20LocalSearchQuantizer19compute_unary_termsEPKfPfm.omp_outlined(ptr noalias nocapture noundef readonly %0, ptr noalias nocapture readnone %1, ptr nocapture noundef nonnull readonly align 8 dereferenceable(8) %2, ptr nocapture noundef readonly %3, ptr nocapture noundef nonnull readonly align 8 dereferenceable(8) %4, ptr nocapture noundef nonnull readonly align 8 dereferenceable(24) %5) #11 personality ptr @__gxx_personality_v0 {
  %7 = alloca i64, align 8
  %8 = alloca i64, align 8
  %9 = alloca i64, align 8
  %10 = alloca i32, align 4
  %11 = load i64, ptr %2, align 8
  %.not = icmp eq i64 %11, 0
  br i1 %.not, label %42, label %12

12:                                               ; preds = %6
  %13 = add i64 %11, -1
  store i64 0, ptr %7, align 8
  store i64 %13, ptr %8, align 8
  store i64 1, ptr %9, align 8
  store i32 0, ptr %10, align 4
  %14 = load i32, ptr %0, align 4
  call void @__kmpc_for_static_init_8u(ptr nonnull @1, i32 %14, i32 34, ptr nonnull %10, ptr nonnull %7, ptr nonnull %8, ptr nonnull %9, i64 1, i64 1)
  %15 = load i64, ptr %8, align 8
  %16 = call i64 @llvm.umin.i64(i64 %15, i64 %13)
  store i64 %16, ptr %8, align 8
  %17 = load i64, ptr %7, align 8
  %.not27 = icmp ugt i64 %17, %16
  br i1 %.not27, label %._crit_edge23, label %.preheader.lr.ph

.preheader.lr.ph:                                 ; preds = %12
  %18 = getelementptr inbounds i8, ptr %3, i64 24
  %19 = getelementptr inbounds i8, ptr %3, i64 312
  %20 = load i64, ptr %18, align 8
  %.not24 = icmp eq i64 %20, 0
  br i1 %.not24, label %._crit_edge23, label %.preheader

.preheader:                                       ; preds = %.preheader.lr.ph, %._crit_edge
  %21 = phi i64 [ %37, %._crit_edge ], [ %16, %.preheader.lr.ph ]
  %22 = phi i64 [ %38, %._crit_edge ], [ 1, %.preheader.lr.ph ]
  %.022 = phi i64 [ %39, %._crit_edge ], [ %17, %.preheader.lr.ph ]
  %.not25 = icmp eq i64 %22, 0
  br i1 %.not25, label %._crit_edge, label %.lr.ph

.lr.ph:                                           ; preds = %.preheader, %33
  %.02021 = phi i64 [ %34, %33 ], [ 0, %.preheader ]
  %23 = load ptr, ptr %4, align 8
  %24 = load i64, ptr %2, align 8
  %25 = load i64, ptr %19, align 8
  %26 = mul i64 %25, %.02021
  %27 = mul i64 %26, %24
  %28 = getelementptr inbounds float, ptr %23, i64 %27
  %29 = mul i64 %25, %.022
  %30 = getelementptr inbounds float, ptr %28, i64 %29
  %31 = load ptr, ptr %5, align 8
  %32 = getelementptr inbounds float, ptr %31, i64 %26
  invoke void @_ZN5faiss8fvec_addEmPKfS1_Pf(i64 noundef %25, ptr noundef %30, ptr noundef %32, ptr noundef %30)
          to label %33 unwind label %43

33:                                               ; preds = %.lr.ph
  %34 = add nuw i64 %.02021, 1
  %35 = load i64, ptr %18, align 8
  %36 = icmp ult i64 %34, %35
  br i1 %36, label %.lr.ph, label %._crit_edge.loopexit, !llvm.loop !75

._crit_edge.loopexit:                             ; preds = %33
  %.pre = load i64, ptr %8, align 8
  br label %._crit_edge

._crit_edge:                                      ; preds = %._crit_edge.loopexit, %.preheader
  %37 = phi i64 [ %.pre, %._crit_edge.loopexit ], [ %21, %.preheader ]
  %38 = phi i64 [ %35, %._crit_edge.loopexit ], [ 0, %.preheader ]
  %39 = add nuw i64 %.022, 1
  %40 = add i64 %37, 1
  %41 = icmp ult i64 %39, %40
  br i1 %41, label %.preheader, label %._crit_edge23, !llvm.loop !76

._crit_edge23:                                    ; preds = %._crit_edge, %.preheader.lr.ph, %12
  call void @__kmpc_for_static_fini(ptr nonnull @1, i32 %14)
  br label %42

42:                                               ; preds = %._crit_edge23, %6
  ret void

43:                                               ; preds = %.lr.ph
  %44 = landingpad { ptr, i32 }
          catch ptr null
  %45 = extractvalue { ptr, i32 } %44, 0
  call void @__clang_call_terminate(ptr %45) #28
  unreachable
}